target datalayout = "e-m:e-p270:32:32-p271:32:32-p272:64:64-i64:64-i128:128-f80:128-n8:16:32:64-S128"
target triple = "x86_64-pc-linux-gnu"

%struct.expert_field = type { i32, i32 }
%struct._packet_info = type { ptr, ptr, i32, i32, %struct.nstime_t, %struct.nstime_t, %struct.nstime_t, i8, ptr, ptr, ptr, ptr, %struct._address, %struct._address, %struct._address, %struct._address, %struct._address, %struct._address, i32, ptr, i8, [3 x i8], %struct.anon, i32, i32, i32, i32, ptr, i8, ptr, ptr, i16, i16, i32, i32, i16, i32, i32, ptr, ptr, ptr, i8, i8, i16, i16, i16, i32, i16, i16, ptr, ptr, ptr, ptr, ptr, i32, i32 }
%struct.nstime_t = type { i64, i32 }
%struct._address = type { i32, i32, ptr, ptr }
%struct.anon = type { i8, [3 x i8] }
%struct._diam_ctx_t = type { ptr, ptr, ptr }
%struct._proto_node = type { ptr, ptr, ptr, ptr, ptr, ptr, ptr }
%struct._diam_avp_t = type { i32, ptr, ptr, i32, i32, ptr }
%struct._address_avp_t = type { i32, i32, i32, i32, i32, i32 }

@.str.70 = private unnamed_addr constant [3 x i8] c": \00", align 1
@ei_diameter_avp_len = internal global %struct.expert_field zeroinitializer, align 4
@.str.134 = private unnamed_addr constant [24 x i8] c"Bad Address Length (%u)\00", align 1

; Function Attrs: null_pointer_is_valid sspstrong uwtable
define internal ptr @address_radius_avp(ptr noundef %0, ptr noundef %1, ptr noundef %2, ptr noundef %3) #0 {
  %5 = alloca ptr, align 8
  %6 = alloca ptr, align 8
  %7 = alloca ptr, align 8
  %8 = alloca ptr, align 8
  %9 = alloca ptr, align 8
  %10 = alloca ptr, align 8
  %11 = alloca ptr, align 8
  %12 = alloca ptr, align 8
  %13 = alloca i32, align 4
  store ptr %0, ptr %5, align 8
  store ptr %1, ptr %6, align 8
  store ptr %2, ptr %7, align 8
  store ptr %3, ptr %8, align 8
  call void @llvm.lifetime.start.p0(i64 8, ptr %9) #14
  store ptr null, ptr %9, align 8
  call void @llvm.lifetime.start.p0(i64 8, ptr %10) #14
  %14 = load ptr, ptr %6, align 8
  %15 = getelementptr inbounds nuw %struct._diam_avp_t, ptr %14, i32 0, i32 5
  %16 = load ptr, ptr %15, align 8
  store ptr %16, ptr %10, align 8
  call void @llvm.lifetime.start.p0(i64 8, ptr %11) #14
  %17 = load ptr, ptr %5, align 8
  %18 = getelementptr inbounds nuw %struct._diam_ctx_t, ptr %17, i32 0, i32 0
  %19 = load ptr, ptr %18, align 8
  %20 = load ptr, ptr %6, align 8
  %21 = getelementptr inbounds nuw %struct._diam_avp_t, ptr %20, i32 0, i32 4
  %22 = load i32, ptr %21, align 4
  %23 = load ptr, ptr %7, align 8
  %24 = load ptr, ptr %7, align 8
  %25 = call i32 @tvb_reported_length(ptr noundef %24)
  %26 = call ptr @proto_tree_add_item(ptr noundef %19, i32 noundef %22, ptr noundef %23, i32 noundef 0, i32 noundef %25, i32 noundef 0)
  store ptr %26, ptr %11, align 8
  call void @llvm.lifetime.start.p0(i64 8, ptr %12) #14
  %27 = load ptr, ptr %11, align 8
  %28 = load ptr, ptr %10, align 8
  %29 = getelementptr inbounds nuw %struct._address_avp_t, ptr %28, i32 0, i32 0
  %30 = load i32, ptr %29, align 4
  %31 = call ptr @proto_item_add_subtree(ptr noundef %27, i32 noundef %30)
  store ptr %31, ptr %12, align 8
  call void @llvm.lifetime.start.p0(i64 4, ptr %13) #14
  %32 = load ptr, ptr %7, align 8
  %33 = call i32 @tvb_reported_length(ptr noundef %32)
  store i32 %33, ptr %13, align 4
  %34 = load i32, ptr %13, align 4
  switch i32 %34, label %49 [
    i32 4, label %35
    i32 16, label %42
  ]

35:                                               ; preds = %4
  %36 = load ptr, ptr %12, align 8
  %37 = load ptr, ptr %10, align 8
  %38 = getelementptr inbounds nuw %struct._address_avp_t, ptr %37, i32 0, i32 2
  %39 = load i32, ptr %38, align 4
  %40 = load ptr, ptr %7, align 8
  %41 = call ptr @proto_tree_add_item(ptr noundef %36, i32 noundef %39, ptr noundef %40, i32 noundef 0, i32 noundef 4, i32 noundef 0)
  store ptr %41, ptr %11, align 8
  br label %63

42:                                               ; preds = %4
  %43 = load ptr, ptr %12, align 8
  %44 = load ptr, ptr %10, align 8
  %45 = getelementptr inbounds nuw %struct._address_avp_t, ptr %44, i32 0, i32 3
  %46 = load i32, ptr %45, align 4
  %47 = load ptr, ptr %7, align 8
  %48 = call ptr @proto_tree_add_item(ptr noundef %43, i32 noundef %46, ptr noundef %47, i32 noundef 0, i32 noundef 16, i32 noundef 0)
  store ptr %48, ptr %11, align 8
  br label %63

49:                                               ; preds = %4
  %50 = load ptr, ptr %12, align 8
  %51 = load ptr, ptr %10, align 8
  %52 = getelementptr inbounds nuw %struct._address_avp_t, ptr %51, i32 0, i32 5
  %53 = load i32, ptr %52, align 4
  %54 = load ptr, ptr %7, align 8
  %55 = load i32, ptr %13, align 4
  %56 = call ptr @proto_tree_add_item(ptr noundef %50, i32 noundef %53, ptr noundef %54, i32 noundef 0, i32 noundef %55, i32 noundef 0)
  store ptr %56, ptr %11, align 8
  %57 = load ptr, ptr %5, align 8
  %58 = getelementptr inbounds nuw %struct._diam_ctx_t, ptr %57, i32 0, i32 1
  %59 = load ptr, ptr %58, align 8
  %60 = load ptr, ptr %11, align 8
  %61 = load i32, ptr %13, align 4
  %62 = call ptr (ptr, ptr, ptr, ptr, ...) @expert_add_info_format(ptr noundef %59, ptr noundef %60, ptr noundef @ei_diameter_avp_len, ptr noundef @.str.134, i32 noundef %61)
  br label %63

63:                                               ; preds = %49, %42, %35
  %64 = load ptr, ptr %5, align 8
  %65 = getelementptr inbounds nuw %struct._diam_ctx_t, ptr %64, i32 0, i32 0
  %66 = load ptr, ptr %65, align 8
  %67 = icmp ne ptr %66, null
  br i1 %67, label %68, label %82

68:                                               ; preds = %63
  %69 = load ptr, ptr %5, align 8
  %70 = getelementptr inbounds nuw %struct._diam_ctx_t, ptr %69, i32 0, i32 1
  %71 = load ptr, ptr %70, align 8
  %72 = getelementptr inbounds nuw %struct._packet_info, ptr %71, i32 0, i32 51
  %73 = load ptr, ptr %72, align 8
  %74 = call noalias ptr @wmem_alloc(ptr noundef %73, i64 noundef 241) #15
  store ptr %74, ptr %9, align 8
  %75 = load ptr, ptr %11, align 8
  %76 = getelementptr inbounds nuw %struct._proto_node, ptr %75, i32 0, i32 5
  %77 = load ptr, ptr %76, align 8
  %78 = load ptr, ptr %9, align 8
  call void @proto_item_fill_label(ptr noundef %77, ptr noundef %78, ptr noundef null)
  %79 = load ptr, ptr %9, align 8
  %80 = call ptr @strstr(ptr noundef %79, ptr noundef @.str.70) #17
  %81 = getelementptr i8, ptr %80, i64 2
  store ptr %81, ptr %9, align 8
  br label %82

82:                                               ; preds = %68, %63
  %83 = load ptr, ptr %9, align 8
  call void @llvm.lifetime.end.p0(i64 4, ptr %13) #14
  call void @llvm.lifetime.end.p0(i64 8, ptr %12) #14
  call void @llvm.lifetime.end.p0(i64 8, ptr %11) #14
  call void @llvm.lifetime.end.p0(i64 8, ptr %10) #14
  call void @llvm.lifetime.end.p0(i64 8, ptr %9) #14
  ret ptr %83
}