; Function Attrs: null_pointer_is_valid sspstrong uwtable
define internal ptr @address_radius_avp(ptr noundef readonly captures(none) %0, ptr noundef readonly captures(none) %1, ptr noundef %2, ptr readnone captures(none) %3) #0 {
  %5 = getelementptr inbounds nuw i8, ptr %1, i64 32
  %6 = load ptr, ptr %5, align 8
  %7 = load ptr, ptr %0, align 8
  %8 = getelementptr inbounds nuw i8, ptr %1, i64 28
  %9 = load i32, ptr %8, align 4
  %10 = tail call i32 @tvb_reported_length(ptr noundef %2)
  %11 = tail call ptr @proto_tree_add_item(ptr noundef %7, i32 noundef %9, ptr noundef %2, i32 noundef 0, i32 noundef %10, i32 noundef 0)
  %12 = load i32, ptr %6, align 4
  %13 = tail call ptr @proto_item_add_subtree(ptr noundef %11, i32 noundef %12)
  %14 = tail call i32 @tvb_reported_length(ptr noundef %2)
  switch i32 %14, label %23 [
    i32 4, label %15
    i32 16, label %19
  ]

15:                                               ; preds = %4
  %16 = getelementptr inbounds nuw i8, ptr %6, i64 8
  %17 = load i32, ptr %16, align 4
  %18 = tail call ptr @proto_tree_add_item(ptr noundef %13, i32 noundef %17, ptr noundef %2, i32 noundef 0, i32 noundef 4, i32 noundef 0)
  br label %30

19:                                               ; preds = %4
  %20 = getelementptr inbounds nuw i8, ptr %6, i64 12
  %21 = load i32, ptr %20, align 4
  %22 = tail call ptr @proto_tree_add_item(ptr noundef %13, i32 noundef %21, ptr noundef %2, i32 noundef 0, i32 noundef 16, i32 noundef 0)
  br label %30

23:                                               ; preds = %4
  %24 = getelementptr inbounds nuw i8, ptr %6, i64 20
  %25 = load i32, ptr %24, align 4
  %26 = tail call ptr @proto_tree_add_item(ptr noundef %13, i32 noundef %25, ptr noundef %2, i32 noundef 0, i32 noundef %14, i32 noundef 0)
  %27 = getelementptr inbounds nuw i8, ptr %0, i64 8
  %28 = load ptr, ptr %27, align 8
  %29 = tail call ptr (ptr, ptr, ptr, ptr, ...) @expert_add_info_format(ptr noundef %28, ptr noundef %26, ptr noundef nonnull @ei_diameter_avp_len, ptr noundef nonnull @.str.134, i32 noundef %14)
  br label %30

30:                                               ; preds = %23, %19, %15
  %.027 = phi ptr [ %26, %23 ], [ %22, %19 ], [ %18, %15 ]
  %31 = load ptr, ptr %0, align 8
  %.not = icmp eq ptr %31, null
  br i1 %.not, label %42, label %32

32:                                               ; preds = %30
  %33 = getelementptr inbounds nuw i8, ptr %0, i64 8
  %34 = load ptr, ptr %33, align 8
  %35 = getelementptr inbounds nuw i8, ptr %34, i64 408
  %36 = load ptr, ptr %35, align 8
  %37 = tail call noalias dereferenceable_or_null(241) ptr @wmem_alloc(ptr noundef %36, i64 noundef 241) #15
  %38 = getelementptr inbounds nuw i8, ptr %.027, i64 40
  %39 = load ptr, ptr %38, align 8
  tail call void @proto_item_fill_label(ptr noundef %39, ptr noundef %37, ptr noundef null)
  %40 = tail call ptr @strstr(ptr noundef %37, ptr noundef nonnull dereferenceable(1) @.str.70) #18
  %41 = getelementptr i8, ptr %40, i64 2
  br label %42

42:                                               ; preds = %32, %30
  %.0 = phi ptr [ %41, %32 ], [ null, %30 ]
  ret ptr %.0
}